; Function Attrs: nounwind uwtable
define i32 @H5Pget_external_count(i64 noundef %0) local_unnamed_addr #0 {
  %2 = alloca %struct.H5O_efl_t, align 8
  %3 = alloca %struct.H5CX_node_t, align 8
  call void @llvm.lifetime.start.p0(i64 32, ptr nonnull %2) #12
  call void @llvm.lifetime.start.p0(i64 480, ptr nonnull %3) #12
  call void @llvm.memset.p0.i64(ptr noundef nonnull align 8 dereferenceable(480) %3, i8 0, i64 480, i1 false)
  %4 = load i8, ptr @H5_libinit_g, align 1, !tbaa !3, !range !7, !noundef !8
  %5 = trunc nuw i8 %4 to i1
  %6 = load i8, ptr @H5_libterm_g, align 1, !range !7
  %7 = trunc nuw i8 %6 to i1
  %8 = select i1 %5, i1 true, i1 %7
  br i1 %8, label %16, label %9, !prof !9

9:                                                ; preds = %1
  %10 = tail call i32 @H5_init_library() #12
  %11 = icmp slt i32 %10, 0
  br i1 %11, label %12, label %._crit_edge, !prof !23

._crit_edge:                                      ; preds = %9
  %.pre = load i8, ptr @H5_libterm_g, align 1, !range !7
  br label %16

12:                                               ; preds = %9
  %13 = load i64, ptr @H5E_FUNC_g, align 8, !tbaa !10
  %14 = load i64, ptr @H5E_CANTINIT_g, align 8, !tbaa !10
  %15 = tail call i32 (ptr, ptr, i32, i64, i64, ptr, ...) @H5E_printf_stack(ptr noundef nonnull @.str.1, ptr noundef nonnull @__func__.H5Pget_external_count, i32 noundef 2665, i64 noundef %13, i64 noundef %14, ptr noundef nonnull @.str.2) #12
  br label %.thread20

16:                                               ; preds = %._crit_edge, %1
  %17 = phi i8 [ %.pre, %._crit_edge ], [ %6, %1 ]
  %18 = load i8, ptr @H5P_init_g, align 1, !tbaa !3, !range !7, !noundef !8
  %19 = trunc nuw i8 %18 to i1
  %20 = trunc nuw i8 %17 to i1
  %21 = select i1 %19, i1 true, i1 %20
  br i1 %21, label %29, label %22, !prof !9

22:                                               ; preds = %16
  store i8 1, ptr @H5P_init_g, align 1, !tbaa !3
  %23 = tail call i32 @H5P__init_package() #12
  %24 = icmp slt i32 %23, 0
  br i1 %24, label %25, label %29, !prof !24

25:                                               ; preds = %22
  store i8 0, ptr @H5P_init_g, align 1, !tbaa !3
  %26 = load i64, ptr @H5E_FUNC_g, align 8, !tbaa !10
  %27 = load i64, ptr @H5E_CANTINIT_g, align 8, !tbaa !10
  %28 = tail call i32 (ptr, ptr, i32, i64, i64, ptr, ...) @H5E_printf_stack(ptr noundef nonnull @.str.1, ptr noundef nonnull @__func__.H5Pget_external_count, i32 noundef 2665, i64 noundef %26, i64 noundef %27, ptr noundef nonnull @.str.3) #12
  br label %.thread20

29:                                               ; preds = %16, %22
  %30 = call i32 @H5CX_push(ptr noundef nonnull %3) #12
  %31 = icmp slt i32 %30, 0
  br i1 %31, label %32, label %36, !prof !23

32:                                               ; preds = %29
  %33 = load i64, ptr @H5E_FUNC_g, align 8, !tbaa !10
  %34 = load i64, ptr @H5E_CANTSET_g, align 8, !tbaa !10
  %35 = call i32 (ptr, ptr, i32, i64, i64, ptr, ...) @H5E_printf_stack(ptr noundef nonnull @.str.1, ptr noundef nonnull @__func__.H5Pget_external_count, i32 noundef 2665, i64 noundef %33, i64 noundef %34, ptr noundef nonnull @.str.4) #12
  br label %.thread20

36:                                               ; preds = %29
  %37 = call i32 @H5E_clear_stack() #12
  %38 = load i64, ptr @H5P_CLS_DATASET_CREATE_ID_g, align 8, !tbaa !10
  %39 = call ptr @H5P_object_verify(i64 noundef %0, i64 noundef %38, i1 noundef zeroext true) #12
  %40 = icmp eq ptr %39, null
  br i1 %40, label %41, label %45, !prof !25

41:                                               ; preds = %36
  %42 = load i64, ptr @H5E_ID_g, align 8, !tbaa !10
  %43 = load i64, ptr @H5E_BADID_g, align 8, !tbaa !10
  %44 = call i32 (ptr, ptr, i32, i64, i64, ptr, ...) @H5E_printf_stack(ptr noundef nonnull @.str.1, ptr noundef nonnull @__func__.H5Pget_external_count, i32 noundef 2669, i64 noundef %42, i64 noundef %43, ptr noundef nonnull @.str.6) #12
  br label %.thread26

45:                                               ; preds = %36
  %46 = call i32 @H5P_peek(ptr noundef nonnull %39, ptr noundef nonnull @.str.42, ptr noundef nonnull %2) #12
  %47 = icmp slt i32 %46, 0
  br i1 %47, label %48, label %53, !prof !25

48:                                               ; preds = %45
  %49 = load i64, ptr @H5E_PLIST_g, align 8, !tbaa !10
  %50 = load i64, ptr @H5E_CANTGET_g, align 8, !tbaa !10
  %51 = call i32 (ptr, ptr, i32, i64, i64, ptr, ...) @H5E_printf_stack(ptr noundef nonnull @.str.1, ptr noundef nonnull @__func__.H5Pget_external_count, i32 noundef 2673, i64 noundef %49, i64 noundef %50, ptr noundef nonnull @.str.43) #12
  br label %.thread26

.thread26:                                        ; preds = %48, %41
  %52 = call i32 @H5CX_pop(i1 noundef zeroext true) #12
  br label %.thread20

53:                                               ; preds = %45
  %54 = getelementptr inbounds nuw i8, ptr %2, i64 16
  %55 = load i64, ptr %54, align 8, !tbaa !64
  %56 = trunc i64 %55 to i32
  %57 = call i32 @H5CX_pop(i1 noundef zeroext true) #12
  br label %59

.thread20:                                        ; preds = %32, %25, %12, %.thread26
  %58 = call i32 @H5E_dump_api_stack() #12
  br label %59

59:                                               ; preds = %53, %.thread20
  %.0101523 = phi i32 [ -1, %.thread20 ], [ %56, %53 ]
  call void @llvm.lifetime.end.p0(i64 480, ptr nonnull %3) #12
  call void @llvm.lifetime.end.p0(i64 32, ptr nonnull %2) #12
  ret i32 %.0101523
}